target datalayout = "e-m:e-p270:32:32-p271:32:32-p272:64:64-i64:64-i128:128-f80:128-n8:16:32:64-S128"
target triple = "x86_64-pc-linux-gnu"

%struct._tokenizer_mode = type { i32, i32, i32, i8, i32, i32, ptr, ptr, i32, i64, i64, i64, i64, ptr, i32, i32 }
%struct.tok_state = type { ptr, ptr, ptr, i32, ptr, ptr, ptr, ptr, i32, ptr, i32, i32, [100 x i32], i32, i32, ptr, ptr, i32, i32, i32, i32, i32, [200 x i8], [200 x i32], [200 x i32], ptr, [100 x i32], i32, i32, ptr, i32, ptr, ptr, ptr, ptr, ptr, ptr, ptr, ptr, i32, i32, ptr, i32, [150 x %struct._tokenizer_mode], i32, i32, i32, i32 }
%struct._object = type { %union.anon, ptr }
%union.anon = type { i64 }
%struct.anon = type { i32, i32 }

; Function Attrs: alwaysinline nounwind uwtable
define internal i32 @_Py_IsImmortal(ptr noundef %0) #6 {
  %2 = alloca ptr, align 8
  store ptr %0, ptr %2, align 8, !tbaa !61
  %3 = load ptr, ptr %2, align 8, !tbaa !61
  %4 = getelementptr inbounds nuw %struct._object, ptr %3, i32 0, i32 0
  %5 = getelementptr inbounds nuw %struct.anon, ptr %4, i32 0, i32 0
  %6 = load i32, ptr %5, align 8, !tbaa !57
  %7 = icmp slt i32 %6, 0
  %8 = zext i1 %7 to i32
  ret i32 %8
}

; Function Attrs: alwaysinline nounwind uwtable
define internal void @Py_DECREF(ptr noundef %0) #6 {
  %2 = alloca ptr, align 8
  store ptr %0, ptr %2, align 8, !tbaa !61
  %3 = load ptr, ptr %2, align 8, !tbaa !61
  %4 = call i32 @_Py_IsImmortal(ptr noundef %3)
  %5 = icmp ne i32 %4, 0
  br i1 %5, label %6, label %7

6:                                                ; preds = %1
  br label %16

7:                                                ; preds = %1
  %8 = load ptr, ptr %2, align 8, !tbaa !61
  %9 = getelementptr inbounds nuw %struct._object, ptr %8, i32 0, i32 0
  %10 = getelementptr inbounds nuw %struct.anon, ptr %9, i32 0, i32 0
  %11 = load i32, ptr %10, align 8, !tbaa !57
  %12 = add i32 %11, -1
  store i32 %12, ptr %10, align 8, !tbaa !57
  %13 = icmp eq i32 %12, 0
  br i1 %13, label %14, label %16

14:                                               ; preds = %7
  %15 = load ptr, ptr %2, align 8, !tbaa !61
  call void @_Py_Dealloc(ptr noundef %15)
  br label %16

16:                                               ; preds = %6, %14, %7
  ret void
}

; Function Attrs: nounwind uwtable
define internal void @free_fstring_expressions(ptr noundef %0) #0 {
  %2 = alloca ptr, align 8
  %3 = alloca i32, align 4
  %4 = alloca ptr, align 8
  store ptr %0, ptr %2, align 8, !tbaa !4
  call void @llvm.lifetime.start.p0(i64 4, ptr %3) #7
  call void @llvm.lifetime.start.p0(i64 8, ptr %4) #7
  %5 = load ptr, ptr %2, align 8, !tbaa !4
  %6 = getelementptr inbounds nuw %struct.tok_state, ptr %5, i32 0, i32 44
  %7 = load i32, ptr %6, align 8, !tbaa !60
  store i32 %7, ptr %3, align 4, !tbaa !27
  br label %8

8:                                                ; preds = %34, %1
  %9 = load i32, ptr %3, align 4, !tbaa !27
  %10 = icmp sge i32 %9, 0
  br i1 %10, label %11, label %37

11:                                               ; preds = %8
  %12 = load ptr, ptr %2, align 8, !tbaa !4
  %13 = getelementptr inbounds nuw %struct.tok_state, ptr %12, i32 0, i32 43
  %14 = load i32, ptr %3, align 4, !tbaa !27
  %15 = sext i32 %14 to i64
  %16 = getelementptr [150 x %struct._tokenizer_mode], ptr %13, i64 0, i64 %15
  store ptr %16, ptr %4, align 8, !tbaa !62
  %17 = load ptr, ptr %4, align 8, !tbaa !62
  %18 = getelementptr inbounds nuw %struct._tokenizer_mode, ptr %17, i32 0, i32 13
  %19 = load ptr, ptr %18, align 8, !tbaa !64
  %20 = icmp ne ptr %19, null
  br i1 %20, label %21, label %33

21:                                               ; preds = %11
  %22 = load ptr, ptr %4, align 8, !tbaa !62
  %23 = getelementptr inbounds nuw %struct._tokenizer_mode, ptr %22, i32 0, i32 13
  %24 = load ptr, ptr %23, align 8, !tbaa !64
  call void @PyMem_Free(ptr noundef %24)
  %25 = load ptr, ptr %4, align 8, !tbaa !62
  %26 = getelementptr inbounds nuw %struct._tokenizer_mode, ptr %25, i32 0, i32 13
  store ptr null, ptr %26, align 8, !tbaa !64
  %27 = load ptr, ptr %4, align 8, !tbaa !62
  %28 = getelementptr inbounds nuw %struct._tokenizer_mode, ptr %27, i32 0, i32 11
  store i64 0, ptr %28, align 8, !tbaa !65
  %29 = load ptr, ptr %4, align 8, !tbaa !62
  %30 = getelementptr inbounds nuw %struct._tokenizer_mode, ptr %29, i32 0, i32 12
  store i64 -1, ptr %30, align 8, !tbaa !66
  %31 = load ptr, ptr %4, align 8, !tbaa !62
  %32 = getelementptr inbounds nuw %struct._tokenizer_mode, ptr %31, i32 0, i32 15
  store i32 0, ptr %32, align 4, !tbaa !67
  br label %33

33:                                               ; preds = %21, %11
  br label %34

34:                                               ; preds = %33
  %35 = load i32, ptr %3, align 4, !tbaa !27
  %36 = add i32 %35, -1
  store i32 %36, ptr %3, align 4, !tbaa !27
  br label %8, !llvm.loop !68

37:                                               ; preds = %8
  call void @llvm.lifetime.end.p0(i64 8, ptr %4) #7
  call void @llvm.lifetime.end.p0(i64 4, ptr %3) #7
  ret void
}

; Function Attrs: inlinehint nounwind uwtable
define internal void @Py_XDECREF(ptr noundef %0) #5 {
  %2 = alloca ptr, align 8
  store ptr %0, ptr %2, align 8, !tbaa !61
  %3 = load ptr, ptr %2, align 8, !tbaa !61
  %4 = icmp ne ptr %3, null
  br i1 %4, label %5, label %7

5:                                                ; preds = %1
  %6 = load ptr, ptr %2, align 8, !tbaa !61
  call void @Py_DECREF(ptr noundef %6)
  br label %7

7:                                                ; preds = %5, %1
  ret void
}

; Function Attrs: nounwind uwtable
define hidden void @_PyTokenizer_Free(ptr noundef %0) #0 {
  %2 = alloca ptr, align 8
  store ptr %0, ptr %2, align 8, !tbaa !4
  %3 = load ptr, ptr %2, align 8, !tbaa !4
  %4 = getelementptr inbounds nuw %struct.tok_state, ptr %3, i32 0, i32 29
  %5 = load ptr, ptr %4, align 8, !tbaa !39
  %6 = icmp ne ptr %5, null
  br i1 %6, label %7, label %11

7:                                                ; preds = %1
  %8 = load ptr, ptr %2, align 8, !tbaa !4
  %9 = getelementptr inbounds nuw %struct.tok_state, ptr %8, i32 0, i32 29
  %10 = load ptr, ptr %9, align 8, !tbaa !39
  call void @PyMem_Free(ptr noundef %10)
  br label %11

11:                                               ; preds = %7, %1
  %12 = load ptr, ptr %2, align 8, !tbaa !4
  %13 = getelementptr inbounds nuw %struct.tok_state, ptr %12, i32 0, i32 33
  %14 = load ptr, ptr %13, align 8, !tbaa !42
  call void @Py_XDECREF(ptr noundef %14)
  %15 = load ptr, ptr %2, align 8, !tbaa !4
  %16 = getelementptr inbounds nuw %struct.tok_state, ptr %15, i32 0, i32 34
  %17 = load ptr, ptr %16, align 8, !tbaa !43
  call void @Py_XDECREF(ptr noundef %17)
  %18 = load ptr, ptr %2, align 8, !tbaa !4
  %19 = getelementptr inbounds nuw %struct.tok_state, ptr %18, i32 0, i32 35
  %20 = load ptr, ptr %19, align 8, !tbaa !44
  call void @Py_XDECREF(ptr noundef %20)
  %21 = load ptr, ptr %2, align 8, !tbaa !4
  %22 = getelementptr inbounds nuw %struct.tok_state, ptr %21, i32 0, i32 25
  %23 = load ptr, ptr %22, align 8, !tbaa !41
  call void @Py_XDECREF(ptr noundef %23)
  %24 = load ptr, ptr %2, align 8, !tbaa !4
  %25 = getelementptr inbounds nuw %struct.tok_state, ptr %24, i32 0, i32 35
  %26 = load ptr, ptr %25, align 8, !tbaa !44
  %27 = icmp ne ptr %26, null
  br i1 %27, label %33, label %28

28:                                               ; preds = %11
  %29 = load ptr, ptr %2, align 8, !tbaa !4
  %30 = getelementptr inbounds nuw %struct.tok_state, ptr %29, i32 0, i32 9
  %31 = load ptr, ptr %30, align 8, !tbaa !23
  %32 = icmp ne ptr %31, null
  br i1 %32, label %33, label %42

33:                                               ; preds = %28, %11
  %34 = load ptr, ptr %2, align 8, !tbaa !4
  %35 = getelementptr inbounds nuw %struct.tok_state, ptr %34, i32 0, i32 0
  %36 = load ptr, ptr %35, align 8, !tbaa !16
  %37 = icmp ne ptr %36, null
  br i1 %37, label %38, label %42

38:                                               ; preds = %33
  %39 = load ptr, ptr %2, align 8, !tbaa !4
  %40 = getelementptr inbounds nuw %struct.tok_state, ptr %39, i32 0, i32 0
  %41 = load ptr, ptr %40, align 8, !tbaa !16
  call void @PyMem_Free(ptr noundef %41)
  br label %42

42:                                               ; preds = %38, %33, %28
  %43 = load ptr, ptr %2, align 8, !tbaa !4
  %44 = getelementptr inbounds nuw %struct.tok_state, ptr %43, i32 0, i32 38
  %45 = load ptr, ptr %44, align 8, !tbaa !24
  %46 = icmp ne ptr %45, null
  br i1 %46, label %47, label %51

47:                                               ; preds = %42
  %48 = load ptr, ptr %2, align 8, !tbaa !4
  %49 = getelementptr inbounds nuw %struct.tok_state, ptr %48, i32 0, i32 38
  %50 = load ptr, ptr %49, align 8, !tbaa !24
  call void @PyMem_Free(ptr noundef %50)
  br label %51

51:                                               ; preds = %47, %42
  %52 = load ptr, ptr %2, align 8, !tbaa !4
  %53 = getelementptr inbounds nuw %struct.tok_state, ptr %52, i32 0, i32 4
  %54 = load ptr, ptr %53, align 8, !tbaa !18
  %55 = icmp ne ptr %54, null
  br i1 %55, label %56, label %60

56:                                               ; preds = %51
  %57 = load ptr, ptr %2, align 8, !tbaa !4
  %58 = getelementptr inbounds nuw %struct.tok_state, ptr %57, i32 0, i32 4
  %59 = load ptr, ptr %58, align 8, !tbaa !18
  call void @PyMem_Free(ptr noundef %59)
  br label %60

60:                                               ; preds = %56, %51
  %61 = load ptr, ptr %2, align 8, !tbaa !4
  call void @free_fstring_expressions(ptr noundef %61)
  %62 = load ptr, ptr %2, align 8, !tbaa !4
  call void @PyMem_Free(ptr noundef %62)
  ret void
}