; Function Attrs: nounwind uwtable
define hidden void @_PyTokenizer_Free(ptr noundef %0) local_unnamed_addr #0 {
  %2 = getelementptr inbounds nuw i8, ptr %0, i64 2752
  %3 = load ptr, ptr %2, align 8, !tbaa !28
  %.not = icmp eq ptr %3, null
  br i1 %.not, label %5, label %4

4:                                                ; preds = %1
  tail call void @PyMem_Free(ptr noundef nonnull %3) #5
  br label %5

5:                                                ; preds = %4, %1
  %6 = getelementptr inbounds nuw i8, ptr %0, i64 2784
  %7 = load ptr, ptr %6, align 8, !tbaa !29
  %.not.i = icmp eq ptr %7, null
  br i1 %.not.i, label %Py_XDECREF.exit, label %8

8:                                                ; preds = %5
  %9 = load i32, ptr %7, align 8, !tbaa !30
  %.not.i.i = icmp sgt i32 %9, -1
  br i1 %.not.i.i, label %10, label %Py_XDECREF.exit

10:                                               ; preds = %8
  %11 = add nsw i32 %9, -1
  store i32 %11, ptr %7, align 8, !tbaa !30
  %12 = icmp eq i32 %11, 0
  br i1 %12, label %13, label %Py_XDECREF.exit

13:                                               ; preds = %10
  tail call void @_Py_Dealloc(ptr noundef nonnull %7) #5
  br label %Py_XDECREF.exit

Py_XDECREF.exit:                                  ; preds = %5, %8, %10, %13
  %14 = getelementptr inbounds nuw i8, ptr %0, i64 2792
  %15 = load ptr, ptr %14, align 8, !tbaa !31
  %.not.i24 = icmp eq ptr %15, null
  br i1 %.not.i24, label %Py_XDECREF.exit26, label %16

16:                                               ; preds = %Py_XDECREF.exit
  %17 = load i32, ptr %15, align 8, !tbaa !30
  %.not.i.i25 = icmp sgt i32 %17, -1
  br i1 %.not.i.i25, label %18, label %Py_XDECREF.exit26

18:                                               ; preds = %16
  %19 = add nsw i32 %17, -1
  store i32 %19, ptr %15, align 8, !tbaa !30
  %20 = icmp eq i32 %19, 0
  br i1 %20, label %21, label %Py_XDECREF.exit26

21:                                               ; preds = %18
  tail call void @_Py_Dealloc(ptr noundef nonnull %15) #5
  br label %Py_XDECREF.exit26

Py_XDECREF.exit26:                                ; preds = %Py_XDECREF.exit, %16, %18, %21
  %22 = getelementptr inbounds nuw i8, ptr %0, i64 2800
  %23 = load ptr, ptr %22, align 8, !tbaa !32
  %.not.i27 = icmp eq ptr %23, null
  br i1 %.not.i27, label %Py_XDECREF.exit29, label %24

24:                                               ; preds = %Py_XDECREF.exit26
  %25 = load i32, ptr %23, align 8, !tbaa !30
  %.not.i.i28 = icmp sgt i32 %25, -1
  br i1 %.not.i.i28, label %26, label %Py_XDECREF.exit29

26:                                               ; preds = %24
  %27 = add nsw i32 %25, -1
  store i32 %27, ptr %23, align 8, !tbaa !30
  %28 = icmp eq i32 %27, 0
  br i1 %28, label %29, label %Py_XDECREF.exit29

29:                                               ; preds = %26
  tail call void @_Py_Dealloc(ptr noundef nonnull %23) #5
  br label %Py_XDECREF.exit29

Py_XDECREF.exit29:                                ; preds = %Py_XDECREF.exit26, %24, %26, %29
  %30 = getelementptr inbounds nuw i8, ptr %0, i64 2336
  %31 = load ptr, ptr %30, align 8, !tbaa !22
  %.not.i30 = icmp eq ptr %31, null
  br i1 %.not.i30, label %Py_XDECREF.exit32, label %32

32:                                               ; preds = %Py_XDECREF.exit29
  %33 = load i32, ptr %31, align 8, !tbaa !30
  %.not.i.i31 = icmp sgt i32 %33, -1
  br i1 %.not.i.i31, label %34, label %Py_XDECREF.exit32

34:                                               ; preds = %32
  %35 = add nsw i32 %33, -1
  store i32 %35, ptr %31, align 8, !tbaa !30
  %36 = icmp eq i32 %35, 0
  br i1 %36, label %37, label %Py_XDECREF.exit32

37:                                               ; preds = %34
  tail call void @_Py_Dealloc(ptr noundef nonnull %31) #5
  br label %Py_XDECREF.exit32

Py_XDECREF.exit32:                                ; preds = %Py_XDECREF.exit29, %32, %34, %37
  %38 = load ptr, ptr %22, align 8, !tbaa !32
  %.not19 = icmp eq ptr %38, null
  br i1 %.not19, label %39, label %42

39:                                               ; preds = %Py_XDECREF.exit32
  %40 = getelementptr inbounds nuw i8, ptr %0, i64 72
  %41 = load ptr, ptr %40, align 8, !tbaa !13
  %.not20 = icmp eq ptr %41, null
  br i1 %.not20, label %45, label %42

42:                                               ; preds = %39, %Py_XDECREF.exit32
  %43 = load ptr, ptr %0, align 8, !tbaa !33
  %.not21 = icmp eq ptr %43, null
  br i1 %.not21, label %45, label %44

44:                                               ; preds = %42
  tail call void @PyMem_Free(ptr noundef nonnull %43) #5
  br label %45

45:                                               ; preds = %44, %42, %39
  %46 = getelementptr inbounds nuw i8, ptr %0, i64 2824
  %47 = load ptr, ptr %46, align 8, !tbaa !14
  %.not22 = icmp eq ptr %47, null
  br i1 %.not22, label %49, label %48

48:                                               ; preds = %45
  tail call void @PyMem_Free(ptr noundef nonnull %47) #5
  br label %49

49:                                               ; preds = %48, %45
  %50 = getelementptr inbounds nuw i8, ptr %0, i64 32
  %51 = load ptr, ptr %50, align 8, !tbaa !34
  %.not23 = icmp eq ptr %51, null
  br i1 %.not23, label %53, label %52

52:                                               ; preds = %49
  tail call void @PyMem_Free(ptr noundef nonnull %51) #5
  br label %53

53:                                               ; preds = %52, %49
  %54 = getelementptr inbounds nuw i8, ptr %0, i64 17256
  %55 = load i32, ptr %54, align 8, !tbaa !27
  %56 = icmp sgt i32 %55, -1
  br i1 %56, label %.lr.ph.i, label %free_fstring_expressions.exit

.lr.ph.i:                                         ; preds = %53
  %57 = getelementptr inbounds nuw i8, ptr %0, i64 2856
  %58 = zext nneg i32 %55 to i64
  br label %59

59:                                               ; preds = %67, %.lr.ph.i
  %indvars.iv.i = phi i64 [ %58, %.lr.ph.i ], [ %indvars.iv.next.i, %67 ]
  %60 = getelementptr [150 x %struct._tokenizer_mode], ptr %57, i64 0, i64 %indvars.iv.i
  %61 = getelementptr inbounds nuw i8, ptr %60, i64 80
  %62 = load ptr, ptr %61, align 8, !tbaa !35
  %.not.i33 = icmp eq ptr %62, null
  br i1 %.not.i33, label %67, label %63

63:                                               ; preds = %59
  tail call void @PyMem_Free(ptr noundef nonnull %62) #5
  store ptr null, ptr %61, align 8, !tbaa !35
  %64 = getelementptr inbounds nuw i8, ptr %60, i64 64
  store i64 0, ptr %64, align 8, !tbaa !38
  %65 = getelementptr inbounds nuw i8, ptr %60, i64 72
  store i64 -1, ptr %65, align 8, !tbaa !39
  %66 = getelementptr inbounds nuw i8, ptr %60, i64 92
  store i32 0, ptr %66, align 4, !tbaa !40
  br label %67

67:                                               ; preds = %63, %59
  %indvars.iv.next.i = add nsw i64 %indvars.iv.i, -1
  %68 = icmp sgt i64 %indvars.iv.i, 0
  br i1 %68, label %59, label %free_fstring_expressions.exit, !llvm.loop !41

free_fstring_expressions.exit:                    ; preds = %67, %53
  tail call void @PyMem_Free(ptr noundef nonnull %0) #5
  ret void
}